ccopy_reg
_reconstructor
p0
(cgoogle.oauth2.credentials
Credentials
p1
c__builtin__
object
p2
Ntp3
Rp4
(dp5
S'_token_uri'
p6
Vhttps://oauth2.googleapis.com/token
p7
sS'_client_secret'
p8
VPPS2xK777l_nMBA7KIPFHUA8
p9
sS'_id_token'
p10
NsS'token'
p11
Vya29.Gls0B-RrDvv24IKC-BLcDsxaweujqJn55nbHqVeRdVJiEP1PID0hJpoyDNu4wAV2RzJm1OpgRQe-2zt9lERKDBkZSkcfdo1bY5UIWZl-AC4ZZUgw0eY35lQn45FK
p12
sS'_refresh_token'
p13
V1/T6zMQ1WvG9rR1epNCgzv9R1Vr_yGGCed4n1_kkHITJY
p14
sS'_scopes'
p15
(lp16
S'https://www.googleapis.com/auth/gmail.readonly'
p17
asS'_client_id'
p18
V585229939019-00585lk0n70jt0katbprul5a6i5i0a2q.apps.googleusercontent.com
p19
sS'expiry'
p20
cdatetime
datetime
p21
(S'\x07\xe3\x06\x1a\x17\x06\x04\x0bE"'
p22
tp23
Rp24
sb.